; ModuleID = 'source-C-CXX/11/1427.cpp'
source_filename = "source-C-CXX/11/1427.cpp"
target datalayout = "e-m:e-p270:32:32-p271:32:32-p272:64:64-i64:64-f80:128-n8:16:32:64-S128"
target triple = "x86_64-pc-linux-gnu"

%"class.std::ios_base::Init" = type { i8 }
%"class.std::basic_ostream" = type { i32 (...)**, %"class.std::basic_ios" }
%"class.std::basic_ios" = type { %"class.std::ios_base", %"class.std::basic_ostream"*, i8, i8, %"class.std::basic_streambuf"*, %"class.std::ctype"*, %"class.std::num_put"*, %"class.std::num_get"* }
%"class.std::ios_base" = type { i32 (...)**, i64, i64, i32, i32, i32, %"struct.std::ios_base::_Callback_list"*, %"struct.std::ios_base::_Words", [8 x %"struct.std::ios_base::_Words"], i32, %"struct.std::ios_base::_Words"*, %"class.std::locale" }
%"struct.std::ios_base::_Callback_list" = type { %"struct.std::ios_base::_Callback_list"*, void (i32, %"class.std::ios_base"*, i32)*, i32, i32 }
%"struct.std::ios_base::_Words" = type { i8*, i64 }
%"class.std::locale" = type { %"class.std::locale::_Impl"* }
%"class.std::locale::_Impl" = type { i32, %"class.std::locale::facet"**, i64, %"class.std::locale::facet"**, i8** }
%"class.std::locale::facet" = type <{ i32 (...)**, i32, [4 x i8] }>
%"class.std::basic_streambuf" = type { i32 (...)**, i8*, i8*, i8*, i8*, i8*, i8*, %"class.std::locale" }
%"class.std::ctype" = type <{ %"class.std::locale::facet.base", [4 x i8], %struct.__locale_struct*, i8, [7 x i8], i32*, i32*, i16*, i8, [256 x i8], [256 x i8], i8, [6 x i8] }>
%"class.std::locale::facet.base" = type <{ i32 (...)**, i32 }>
%struct.__locale_struct = type { [13 x %struct.__locale_data*], i16*, i32*, i32*, [13 x i8*] }
%struct.__locale_data = type opaque
%"class.std::num_put" = type { %"class.std::locale::facet.base", [4 x i8] }
%"class.std::num_get" = type { %"class.std::locale::facet.base", [4 x i8] }

@_ZStL8__ioinit = internal global %"class.std::ios_base::Init" zeroinitializer, align 1
@__dso_handle = external hidden global i8
@.str = private unnamed_addr constant [3 x i8] c"%d\00", align 1
@_ZSt4cout = external global %"class.std::basic_ostream", align 8
@llvm.global_ctors = appending global [1 x { i32, void ()*, i8* }] [{ i32, void ()*, i8* } { i32 65535, void ()* @_GLOBAL__sub_I_1427.cpp, i8* null }]

declare void @_ZNSt8ios_base4InitC1Ev(%"class.std::ios_base::Init"* nonnull align 1 dereferenceable(1)) unnamed_addr #0

; Function Attrs: nounwind
declare void @_ZNSt8ios_base4InitD1Ev(%"class.std::ios_base::Init"* nonnull align 1 dereferenceable(1)) unnamed_addr #1

; Function Attrs: nofree nounwind
declare i32 @__cxa_atexit(void (i8*)*, i8*, i8*) local_unnamed_addr #2

; Function Attrs: mustprogress norecurse sspstrong uwtable
define dso_local i32 @main() local_unnamed_addr #3 {
  %1 = alloca [30 x i32], align 16
  %2 = bitcast [30 x i32]* %1 to i8*
  call void @llvm.lifetime.start.p0i8(i64 120, i8* nonnull %2) #9
  %3 = getelementptr inbounds [30 x i32], [30 x i32]* %1, i64 0, i64 0
  %4 = call i32 (i8*, ...) @__isoc99_scanf(i8* getelementptr inbounds ([3 x i8], [3 x i8]* @.str, i64 0, i64 0), i32* nonnull %3)
  %5 = load i32, i32* %3, align 16, !tbaa !5
  %6 = icmp eq i32 %5, -1
  br i1 %6, label %131, label %7

7:                                                ; preds = %0, %124
  %8 = phi i32 [ %129, %124 ], [ %5, %0 ]
  %9 = icmp eq i32 %8, 0
  br i1 %9, label %96, label %15

10:                                               ; preds = %15
  %11 = trunc i64 %17 to i32
  %12 = icmp eq i32 %11, 0
  br i1 %12, label %96, label %13

13:                                               ; preds = %10
  %14 = and i64 %17, 4294967295
  br label %26

15:                                               ; preds = %7, %15
  %16 = phi i64 [ %17, %15 ], [ 0, %7 ]
  %17 = add nuw i64 %16, 1
  %18 = getelementptr inbounds [30 x i32], [30 x i32]* %1, i64 0, i64 %17
  %19 = call i32 (i8*, ...) @__isoc99_scanf(i8* getelementptr inbounds ([3 x i8], [3 x i8]* @.str, i64 0, i64 0), i32* nonnull %18)
  %20 = load i32, i32* %18, align 4, !tbaa !5
  %21 = icmp eq i32 %20, 0
  br i1 %21, label %10, label %15, !llvm.loop !9

22:                                               ; preds = %83, %76, %26
  %23 = phi i32 [ %29, %26 ], [ %78, %76 ], [ %93, %83 ]
  %24 = add nuw nsw i64 %28, 1
  %25 = icmp eq i64 %32, %14
  br i1 %25, label %96, label %26, !llvm.loop !11

26:                                               ; preds = %13, %22
  %27 = phi i64 [ 0, %13 ], [ %32, %22 ]
  %28 = phi i64 [ 1, %13 ], [ %24, %22 ]
  %29 = phi i32 [ 0, %13 ], [ %23, %22 ]
  %30 = xor i64 %27, -1
  %31 = add nsw i64 %14, %30
  %32 = add nuw nsw i64 %27, 1
  %33 = icmp ult i64 %32, %14
  br i1 %33, label %34, label %22

34:                                               ; preds = %26
  %35 = getelementptr inbounds [30 x i32], [30 x i32]* %1, i64 0, i64 %27
  %36 = load i32, i32* %35, align 4, !tbaa !5
  %37 = shl nsw i32 %36, 1
  %38 = icmp ult i64 %31, 8
  br i1 %38, label %80, label %39

39:                                               ; preds = %34
  %40 = and i64 %31, -8
  %41 = add i64 %28, %40
  %42 = insertelement <4 x i32> <i32 poison, i32 0, i32 0, i32 0>, i32 %29, i32 0
  %43 = insertelement <4 x i32> poison, i32 %36, i32 0
  %44 = shufflevector <4 x i32> %43, <4 x i32> poison, <4 x i32> zeroinitializer
  %45 = insertelement <4 x i32> poison, i32 %36, i32 0
  %46 = shufflevector <4 x i32> %45, <4 x i32> poison, <4 x i32> zeroinitializer
  %47 = insertelement <4 x i32> poison, i32 %37, i32 0
  %48 = shufflevector <4 x i32> %47, <4 x i32> poison, <4 x i32> zeroinitializer
  %49 = insertelement <4 x i32> poison, i32 %37, i32 0
  %50 = shufflevector <4 x i32> %49, <4 x i32> poison, <4 x i32> zeroinitializer
  br label %51

51:                                               ; preds = %51, %39
  %52 = phi i64 [ 0, %39 ], [ %74, %51 ]
  %53 = phi <4 x i32> [ %42, %39 ], [ %72, %51 ]
  %54 = phi <4 x i32> [ zeroinitializer, %39 ], [ %73, %51 ]
  %55 = add i64 %28, %52
  %56 = getelementptr inbounds [30 x i32], [30 x i32]* %1, i64 0, i64 %55
  %57 = bitcast i32* %56 to <4 x i32>*
  %58 = load <4 x i32>, <4 x i32>* %57, align 4, !tbaa !5
  %59 = getelementptr inbounds i32, i32* %56, i64 4
  %60 = bitcast i32* %59 to <4 x i32>*
  %61 = load <4 x i32>, <4 x i32>* %60, align 4, !tbaa !5
  %62 = shl nsw <4 x i32> %58, <i32 1, i32 1, i32 1, i32 1>
  %63 = shl nsw <4 x i32> %61, <i32 1, i32 1, i32 1, i32 1>
  %64 = icmp eq <4 x i32> %44, %62
  %65 = icmp eq <4 x i32> %46, %63
  %66 = icmp eq <4 x i32> %58, %48
  %67 = icmp eq <4 x i32> %61, %50
  %68 = select <4 x i1> %64, <4 x i1> <i1 true, i1 true, i1 true, i1 true>, <4 x i1> %66
  %69 = select <4 x i1> %65, <4 x i1> <i1 true, i1 true, i1 true, i1 true>, <4 x i1> %67
  %70 = zext <4 x i1> %68 to <4 x i32>
  %71 = zext <4 x i1> %69 to <4 x i32>
  %72 = add <4 x i32> %53, %70
  %73 = add <4 x i32> %54, %71
  %74 = add nuw i64 %52, 8
  %75 = icmp eq i64 %74, %40
  br i1 %75, label %76, label %51, !llvm.loop !12

76:                                               ; preds = %51
  %77 = add <4 x i32> %73, %72
  %78 = call i32 @llvm.vector.reduce.add.v4i32(<4 x i32> %77)
  %79 = icmp eq i64 %31, %40
  br i1 %79, label %22, label %80

80:                                               ; preds = %34, %76
  %81 = phi i64 [ %28, %34 ], [ %41, %76 ]
  %82 = phi i32 [ %29, %34 ], [ %78, %76 ]
  br label %83

83:                                               ; preds = %80, %83
  %84 = phi i64 [ %94, %83 ], [ %81, %80 ]
  %85 = phi i32 [ %93, %83 ], [ %82, %80 ]
  %86 = getelementptr inbounds [30 x i32], [30 x i32]* %1, i64 0, i64 %84
  %87 = load i32, i32* %86, align 4, !tbaa !5
  %88 = shl nsw i32 %87, 1
  %89 = icmp eq i32 %36, %88
  %90 = icmp eq i32 %87, %37
  %91 = select i1 %89, i1 true, i1 %90
  %92 = zext i1 %91 to i32
  %93 = add nsw i32 %85, %92
  %94 = add nuw nsw i64 %84, 1
  %95 = icmp eq i64 %94, %14
  br i1 %95, label %22, label %83, !llvm.loop !14

96:                                               ; preds = %22, %7, %10
  %97 = phi i32 [ 0, %10 ], [ 0, %7 ], [ %23, %22 ]
  %98 = call nonnull align 8 dereferenceable(8) %"class.std::basic_ostream"* @_ZNSolsEi(%"class.std::basic_ostream"* nonnull align 8 dereferenceable(8) @_ZSt4cout, i32 %97)
  %99 = bitcast %"class.std::basic_ostream"* %98 to i8**
  %100 = load i8*, i8** %99, align 8, !tbaa !16
  %101 = getelementptr i8, i8* %100, i64 -24
  %102 = bitcast i8* %101 to i64*
  %103 = load i64, i64* %102, align 8
  %104 = bitcast %"class.std::basic_ostream"* %98 to i8*
  %105 = add nsw i64 %103, 240
  %106 = getelementptr inbounds i8, i8* %104, i64 %105
  %107 = bitcast i8* %106 to %"class.std::ctype"**
  %108 = load %"class.std::ctype"*, %"class.std::ctype"** %107, align 8, !tbaa !18
  %109 = icmp eq %"class.std::ctype"* %108, null
  br i1 %109, label %110, label %111

110:                                              ; preds = %96
  call void @_ZSt16__throw_bad_castv() #10
  unreachable

111:                                              ; preds = %96
  %112 = getelementptr inbounds %"class.std::ctype", %"class.std::ctype"* %108, i64 0, i32 8
  %113 = load i8, i8* %112, align 8, !tbaa !22
  %114 = icmp eq i8 %113, 0
  br i1 %114, label %118, label %115

115:                                              ; preds = %111
  %116 = getelementptr inbounds %"class.std::ctype", %"class.std::ctype"* %108, i64 0, i32 9, i64 10
  %117 = load i8, i8* %116, align 1, !tbaa !24
  br label %124

118:                                              ; preds = %111
  call void @_ZNKSt5ctypeIcE13_M_widen_initEv(%"class.std::ctype"* nonnull align 8 dereferenceable(570) %108)
  %119 = bitcast %"class.std::ctype"* %108 to i8 (%"class.std::ctype"*, i8)***
  %120 = load i8 (%"class.std::ctype"*, i8)**, i8 (%"class.std::ctype"*, i8)*** %119, align 8, !tbaa !16
  %121 = getelementptr inbounds i8 (%"class.std::ctype"*, i8)*, i8 (%"class.std::ctype"*, i8)** %120, i64 6
  %122 = load i8 (%"class.std::ctype"*, i8)*, i8 (%"class.std::ctype"*, i8)** %121, align 8
  %123 = call signext i8 %122(%"class.std::ctype"* nonnull align 8 dereferenceable(570) %108, i8 signext 10)
  br label %124

124:                                              ; preds = %115, %118
  %125 = phi i8 [ %117, %115 ], [ %123, %118 ]
  %126 = call nonnull align 8 dereferenceable(8) %"class.std::basic_ostream"* @_ZNSo3putEc(%"class.std::basic_ostream"* nonnull align 8 dereferenceable(8) %98, i8 signext %125)
  %127 = call nonnull align 8 dereferenceable(8) %"class.std::basic_ostream"* @_ZNSo5flushEv(%"class.std::basic_ostream"* nonnull align 8 dereferenceable(8) %126)
  %128 = call i32 (i8*, ...) @__isoc99_scanf(i8* getelementptr inbounds ([3 x i8], [3 x i8]* @.str, i64 0, i64 0), i32* nonnull %3)
  %129 = load i32, i32* %3, align 16, !tbaa !5
  %130 = icmp eq i32 %129, -1
  br i1 %130, label %131, label %7, !llvm.loop !25

131:                                              ; preds = %124, %0
  call void @llvm.lifetime.end.p0i8(i64 120, i8* nonnull %2) #9
  ret i32 0
}

; Function Attrs: argmemonly mustprogress nofree nosync nounwind willreturn
declare void @llvm.lifetime.start.p0i8(i64 immarg, i8* nocapture) #4

; Function Attrs: nofree nounwind
declare noundef i32 @__isoc99_scanf(i8* nocapture noundef readonly, ...) local_unnamed_addr #5

declare nonnull align 8 dereferenceable(8) %"class.std::basic_ostream"* @_ZNSolsEi(%"class.std::basic_ostream"* nonnull align 8 dereferenceable(8), i32) local_unnamed_addr #0

; Function Attrs: argmemonly mustprogress nofree nosync nounwind willreturn
declare void @llvm.lifetime.end.p0i8(i64 immarg, i8* nocapture) #4

declare nonnull align 8 dereferenceable(8) %"class.std::basic_ostream"* @_ZNSo3putEc(%"class.std::basic_ostream"* nonnull align 8 dereferenceable(8), i8 signext) local_unnamed_addr #0

declare nonnull align 8 dereferenceable(8) %"class.std::basic_ostream"* @_ZNSo5flushEv(%"class.std::basic_ostream"* nonnull align 8 dereferenceable(8)) local_unnamed_addr #0

; Function Attrs: noreturn
declare void @_ZSt16__throw_bad_castv() local_unnamed_addr #6

declare void @_ZNKSt5ctypeIcE13_M_widen_initEv(%"class.std::ctype"* nonnull align 8 dereferenceable(570)) local_unnamed_addr #0

; Function Attrs: sspstrong uwtable
define internal void @_GLOBAL__sub_I_1427.cpp() #7 section ".text.startup" {
  tail call void @_ZNSt8ios_base4InitC1Ev(%"class.std::ios_base::Init"* nonnull align 1 dereferenceable(1) @_ZStL8__ioinit)
  %1 = tail call i32 @__cxa_atexit(void (i8*)* bitcast (void (%"class.std::ios_base::Init"*)* @_ZNSt8ios_base4InitD1Ev to void (i8*)*), i8* getelementptr inbounds (%"class.std::ios_base::Init", %"class.std::ios_base::Init"* @_ZStL8__ioinit, i64 0, i32 0), i8* nonnull @__dso_handle) #9
  ret void
}

; Function Attrs: nofree nosync nounwind readnone willreturn
declare i32 @llvm.vector.reduce.add.v4i32(<4 x i32>) #8


!llvm.module.flags = !{!0, !1, !2, !3}
!llvm.ident = !{!4}

!0 = !{i32 1, !"wchar_size", i32 4}
!1 = !{i32 7, !"PIC Level", i32 2}
!2 = !{i32 7, !"PIE Level", i32 2}
!3 = !{i32 7, !"uwtable", i32 1}
!4 = !{!"clang version 13.0.0"}
!5 = !{!6, !6, i64 0}
!6 = !{!"int", !7, i64 0}
!7 = !{!"omnipotent char", !8, i64 0}
!8 = !{!"Simple C++ TBAA"}
!9 = distinct !{!9, !10}
!10 = !{!"llvm.loop.mustprogress"}
!11 = distinct !{!11, !10}
!12 = distinct !{!12, !10, !13}
!13 = !{!"llvm.loop.isvectorized", i32 1}
!14 = distinct !{!14, !10, !15, !13}
!15 = !{!"llvm.loop.unroll.runtime.disable"}
!16 = !{!17, !17, i64 0}
!17 = !{!"vtable pointer", !8, i64 0}
!18 = !{!19, !20, i64 240}
!19 = !{!"_ZTSSt9basic_iosIcSt11char_traitsIcEE", !20, i64 216, !7, i64 224, !21, i64 225, !20, i64 232, !20, i64 240, !20, i64 248, !20, i64 256}
!20 = !{!"any pointer", !7, i64 0}
!21 = !{!"bool", !7, i64 0}
!22 = !{!23, !7, i64 56}
!23 = !{!"_ZTSSt5ctypeIcE", !20, i64 16, !21, i64 24, !20, i64 32, !20, i64 40, !20, i64 48, !7, i64 56, !7, i64 57, !7, i64 313, !7, i64 569}
!24 = !{!7, !7, i64 0}
!25 = distinct !{!25, !10}
